; Function Attrs: null_pointer_is_valid sspstrong uwtable
define void @wmem_strbuf_append_unichar(ptr noundef captures(none) %0, i32 noundef %1) local_unnamed_addr #0 {
  %3 = alloca [6 x i8], align 1
  call void @llvm.lifetime.start.p0(i64 6, ptr nonnull %3) #17
  %4 = call i32 @g_unichar_to_utf8(i32 noundef %1, ptr noundef nonnull %3)
  %5 = sext i32 %4 to i64
  %6 = getelementptr inbounds nuw i8, ptr %0, i64 24
  %7 = load i64, ptr %6, align 8
  %8 = getelementptr inbounds nuw i8, ptr %0, i64 16
  %9 = load i64, ptr %8, align 8
  %10 = xor i64 %9, -1
  %11 = add i64 %7, %10
  %.not.i = icmp ult i64 %11, %5
  br i1 %.not.i, label %12, label %wmem_strbuf_grow.exit

12:                                               ; preds = %2
  %13 = add nsw i64 %5, 1
  %14 = add i64 %13, %9
  br label %15

15:                                               ; preds = %15, %12
  %.0.i = phi i64 [ %7, %12 ], [ %17, %15 ]
  %16 = icmp ult i64 %.0.i, %14
  %17 = shl i64 %.0.i, 1
  br i1 %16, label %15, label %18, !llvm.loop !20

18:                                               ; preds = %15
  %19 = icmp eq i64 %.0.i, %7
  br i1 %19, label %wmem_strbuf_grow.exit, label %20

20:                                               ; preds = %18
  %21 = load ptr, ptr %0, align 8
  %22 = getelementptr inbounds nuw i8, ptr %0, i64 8
  %23 = load ptr, ptr %22, align 8
  %24 = call ptr @wmem_realloc(ptr noundef %21, ptr noundef %23, i64 noundef %.0.i) #19
  store ptr %24, ptr %22, align 8
  store i64 %.0.i, ptr %6, align 8
  %.pre = load i64, ptr %8, align 8
  br label %wmem_strbuf_grow.exit

wmem_strbuf_grow.exit:                            ; preds = %2, %18, %20
  %25 = phi i64 [ %9, %2 ], [ %9, %18 ], [ %.pre, %20 ]
  %26 = getelementptr inbounds nuw i8, ptr %0, i64 8
  %27 = load ptr, ptr %26, align 8
  %28 = getelementptr i8, ptr %27, i64 %25
  call void @llvm.memcpy.p0.p0.i64(ptr noundef align 1 %28, ptr noundef nonnull align 1 %3, i64 noundef %5, i1 noundef false) #17
  %29 = load i64, ptr %8, align 8
  %30 = add i64 %29, %5
  store i64 %30, ptr %8, align 8
  %31 = load ptr, ptr %26, align 8
  %32 = getelementptr i8, ptr %31, i64 %30
  store i8 0, ptr %32, align 1
  call void @llvm.lifetime.end.p0(i64 6, ptr nonnull %3) #17
  ret void
}